; Function Attrs: nounwind uwtable
define dso_local void @onig_region_clear(ptr noundef captures(none) %0) local_unnamed_addr #4 {
  %2 = getelementptr inbounds nuw i8, ptr %0, i64 4
  %3 = load i32, ptr %2, align 4, !tbaa !21
  %4 = icmp sgt i32 %3, 0
  br i1 %4, label %.lr.ph, label %._crit_edge

.lr.ph:                                           ; preds = %1
  %5 = getelementptr inbounds nuw i8, ptr %0, i64 16
  %6 = load ptr, ptr %5, align 8, !tbaa !22
  %7 = getelementptr inbounds nuw i8, ptr %0, i64 8
  %8 = load ptr, ptr %7, align 8, !tbaa !23
  br label %9

9:                                                ; preds = %.lr.ph, %9
  %indvars.iv = phi i64 [ 0, %.lr.ph ], [ %indvars.iv.next, %9 ]
  %10 = getelementptr inbounds nuw i32, ptr %6, i64 %indvars.iv
  store i32 -1, ptr %10, align 4, !tbaa !24
  %11 = getelementptr inbounds nuw i32, ptr %8, i64 %indvars.iv
  store i32 -1, ptr %11, align 4, !tbaa !24
  %indvars.iv.next = add nuw nsw i64 %indvars.iv, 1
  %12 = load i32, ptr %2, align 4, !tbaa !21
  %13 = sext i32 %12 to i64
  %14 = icmp slt i64 %indvars.iv.next, %13
  br i1 %14, label %9, label %._crit_edge, !llvm.loop !25

._crit_edge:                                      ; preds = %9, %1
  %15 = getelementptr inbounds nuw i8, ptr %0, i64 24
  %16 = load ptr, ptr %15, align 8, !tbaa !16
  %17 = icmp eq ptr %16, null
  br i1 %17, label %history_root_free.exit, label %18

18:                                               ; preds = %._crit_edge
  tail call fastcc void @history_tree_free(ptr noundef %16)
  store ptr null, ptr %15, align 8, !tbaa !16
  br label %history_root_free.exit

history_root_free.exit:                           ; preds = %._crit_edge, %18
  ret void
}